target datalayout = "e-m:e-p270:32:32-p271:32:32-p272:64:64-i64:64-i128:128-f80:128-n8:16:32:64-S128"
target triple = "x86_64-pc-linux-gnu"

%"class.std::basic_filebuf" = type { %"class.std::basic_streambuf", %union.pthread_mutex_t, %"class.std::__basic_file", i32, %struct.__mbstate_t, %struct.__mbstate_t, %struct.__mbstate_t, ptr, i64, i8, i8, i8, i8, ptr, ptr, i8, ptr, ptr, i64, ptr, ptr }
%"class.std::basic_streambuf" = type { ptr, ptr, ptr, ptr, ptr, ptr, ptr, %"class.std::locale" }
%"class.std::locale" = type { ptr }
%union.pthread_mutex_t = type { %struct.__pthread_mutex_s }
%struct.__pthread_mutex_s = type { i32, i32, i32, i32, i32, i16, i16, %struct.__pthread_internal_list }
%struct.__pthread_internal_list = type { ptr, ptr }
%"class.std::__basic_file" = type <{ ptr, i8, [7 x i8] }>
%struct.__mbstate_t = type { i32, %union.anon.0 }
%union.anon.0 = type { i32 }
%"class.std::basic_ios" = type { %"class.std::ios_base", ptr, i8, i8, ptr, ptr, ptr, ptr }
%"class.std::ios_base" = type { ptr, i64, i64, i32, i32, i32, ptr, %"struct.std::ios_base::_Words", [8 x %"struct.std::ios_base::_Words"], i32, ptr, %"class.std::locale" }
%"struct.std::ios_base::_Words" = type { ptr, i64 }
%"class.cv::BitStream" = type <{ %"class.std::basic_ofstream", %"class.std::vector.4", ptr, ptr, ptr, i64, i8, [7 x i8] }>
%"class.std::basic_ofstream" = type { %"class.std::basic_ostream.base", %"class.std::basic_filebuf", %"class.std::basic_ios" }
%"class.std::basic_ostream.base" = type { ptr }
%"class.std::vector.4" = type { %"struct.std::_Vector_base.5" }
%"struct.std::_Vector_base.5" = type { %"struct.std::_Vector_base<unsigned char, std::allocator<unsigned char>>::_Vector_impl" }
%"struct.std::_Vector_base<unsigned char, std::allocator<unsigned char>>::_Vector_impl" = type { %"struct.std::_Vector_base<unsigned char, std::allocator<unsigned char>>::_Vector_impl_data" }
%"struct.std::_Vector_base<unsigned char, std::allocator<unsigned char>>::_Vector_impl_data" = type { ptr, ptr, ptr }

; Function Attrs: mustprogress uwtable
define hidden void @_ZN2cv9BitStream10writeBlockEv(ptr noundef nonnull align 8 dereferenceable(569) %0) #6 align 2 {
  %2 = alloca ptr, align 8
  %3 = alloca i64, align 8
  store ptr %0, ptr %2, align 8, !tbaa !142
  %4 = load ptr, ptr %2, align 8
  call void @llvm.lifetime.start.p0(i64 8, ptr %3) #3
  %5 = getelementptr inbounds nuw %"class.cv::BitStream", ptr %4, i32 0, i32 4
  %6 = load ptr, ptr %5, align 8, !tbaa !154
  %7 = getelementptr inbounds nuw %"class.cv::BitStream", ptr %4, i32 0, i32 2
  %8 = load ptr, ptr %7, align 8, !tbaa !144
  %9 = ptrtoint ptr %6 to i64
  %10 = ptrtoint ptr %8 to i64
  %11 = sub i64 %9, %10
  store i64 %11, ptr %3, align 8, !tbaa !36
  %12 = load i64, ptr %3, align 8, !tbaa !36
  %13 = icmp sgt i64 %12, 0
  br i1 %13, label %14, label %20

14:                                               ; preds = %1
  %15 = getelementptr inbounds nuw %"class.cv::BitStream", ptr %4, i32 0, i32 0
  %16 = getelementptr inbounds nuw %"class.cv::BitStream", ptr %4, i32 0, i32 2
  %17 = load ptr, ptr %16, align 8, !tbaa !144
  %18 = load i64, ptr %3, align 8, !tbaa !36
  %19 = call noundef nonnull align 8 dereferenceable(8) ptr @_ZNSo5writeEPKcl(ptr noundef nonnull align 8 dereferenceable(8) %15, ptr noundef %17, i64 noundef %18)
  br label %20

20:                                               ; preds = %14, %1
  %21 = load i64, ptr %3, align 8, !tbaa !36
  %22 = getelementptr inbounds nuw %"class.cv::BitStream", ptr %4, i32 0, i32 5
  %23 = load i64, ptr %22, align 8, !tbaa !155
  %24 = add i64 %23, %21
  store i64 %24, ptr %22, align 8, !tbaa !155
  %25 = getelementptr inbounds nuw %"class.cv::BitStream", ptr %4, i32 0, i32 2
  %26 = load ptr, ptr %25, align 8, !tbaa !144
  %27 = getelementptr inbounds nuw %"class.cv::BitStream", ptr %4, i32 0, i32 4
  store ptr %26, ptr %27, align 8, !tbaa !154
  call void @llvm.lifetime.end.p0(i64 8, ptr %3) #3
  ret void
}

; Function Attrs: mustprogress uwtable
define hidden void @_ZN2cv9BitStream9jputShortEi(ptr noundef nonnull align 8 dereferenceable(569) %0, i32 noundef %1) #6 align 2 {
  %3 = alloca ptr, align 8
  %4 = alloca i32, align 4
  store ptr %0, ptr %3, align 8, !tbaa !142
  store i32 %1, ptr %4, align 4, !tbaa !3
  %5 = load ptr, ptr %3, align 8
  %6 = load i32, ptr %4, align 4, !tbaa !3
  %7 = ashr i32 %6, 8
  %8 = trunc i32 %7 to i8
  %9 = getelementptr inbounds nuw %"class.cv::BitStream", ptr %5, i32 0, i32 4
  %10 = load ptr, ptr %9, align 8, !tbaa !154
  %11 = getelementptr inbounds i8, ptr %10, i64 0
  store i8 %8, ptr %11, align 1, !tbaa !7
  %12 = load i32, ptr %4, align 4, !tbaa !3
  %13 = trunc i32 %12 to i8
  %14 = getelementptr inbounds nuw %"class.cv::BitStream", ptr %5, i32 0, i32 4
  %15 = load ptr, ptr %14, align 8, !tbaa !154
  %16 = getelementptr inbounds i8, ptr %15, i64 1
  store i8 %13, ptr %16, align 1, !tbaa !7
  %17 = getelementptr inbounds nuw %"class.cv::BitStream", ptr %5, i32 0, i32 4
  %18 = load ptr, ptr %17, align 8, !tbaa !154
  %19 = getelementptr inbounds i8, ptr %18, i64 2
  store ptr %19, ptr %17, align 8, !tbaa !154
  %20 = getelementptr inbounds nuw %"class.cv::BitStream", ptr %5, i32 0, i32 4
  %21 = load ptr, ptr %20, align 8, !tbaa !154
  %22 = getelementptr inbounds nuw %"class.cv::BitStream", ptr %5, i32 0, i32 3
  %23 = load ptr, ptr %22, align 8, !tbaa !152
  %24 = icmp uge ptr %21, %23
  br i1 %24, label %25, label %26

25:                                               ; preds = %2
  call void @_ZN2cv9BitStream10writeBlockEv(ptr noundef nonnull align 8 dereferenceable(569) %5)
  br label %26

26:                                               ; preds = %25, %2
  ret void
}